target datalayout = "e-m:e-p270:32:32-p271:32:32-p272:64:64-i64:64-i128:128-f80:128-n8:16:32:64-S128"
target triple = "x86_64-pc-linux-gnu"

%struct.SDL_BlitInfo = type { ptr, ptr, i32, i32, i32, i32, ptr, ptr, i32, i32, i32, i32, ptr, ptr, ptr, ptr, ptr, ptr, i32, i32, i8, i8, i8, i8 }

; Function Attrs: nounwind uwtable
define internal void @Blit1to2Key(ptr noundef %0) #0 {
  %2 = alloca ptr, align 8
  %3 = alloca i32, align 4
  %4 = alloca i32, align 4
  %5 = alloca ptr, align 8
  %6 = alloca i32, align 4
  %7 = alloca ptr, align 8
  %8 = alloca i32, align 4
  %9 = alloca ptr, align 8
  %10 = alloca i32, align 4
  %11 = alloca i32, align 4
  store ptr %0, ptr %2, align 8
  call void @llvm.lifetime.start.p0(i64 4, ptr %3) #2
  %12 = load ptr, ptr %2, align 8
  %13 = getelementptr inbounds nuw %struct.SDL_BlitInfo, ptr %12, i32 0, i32 8
  %14 = load i32, ptr %13, align 8
  store i32 %14, ptr %3, align 4
  call void @llvm.lifetime.start.p0(i64 4, ptr %4) #2
  %15 = load ptr, ptr %2, align 8
  %16 = getelementptr inbounds nuw %struct.SDL_BlitInfo, ptr %15, i32 0, i32 9
  %17 = load i32, ptr %16, align 4
  store i32 %17, ptr %4, align 4
  call void @llvm.lifetime.start.p0(i64 8, ptr %5) #2
  %18 = load ptr, ptr %2, align 8
  %19 = getelementptr inbounds nuw %struct.SDL_BlitInfo, ptr %18, i32 0, i32 1
  %20 = load ptr, ptr %19, align 8
  store ptr %20, ptr %5, align 8
  call void @llvm.lifetime.start.p0(i64 4, ptr %6) #2
  %21 = load ptr, ptr %2, align 8
  %22 = getelementptr inbounds nuw %struct.SDL_BlitInfo, ptr %21, i32 0, i32 5
  %23 = load i32, ptr %22, align 4
  store i32 %23, ptr %6, align 4
  call void @llvm.lifetime.start.p0(i64 8, ptr %7) #2
  %24 = load ptr, ptr %2, align 8
  %25 = getelementptr inbounds nuw %struct.SDL_BlitInfo, ptr %24, i32 0, i32 7
  %26 = load ptr, ptr %25, align 8
  store ptr %26, ptr %7, align 8
  call void @llvm.lifetime.start.p0(i64 4, ptr %8) #2
  %27 = load ptr, ptr %2, align 8
  %28 = getelementptr inbounds nuw %struct.SDL_BlitInfo, ptr %27, i32 0, i32 11
  %29 = load i32, ptr %28, align 4
  store i32 %29, ptr %8, align 4
  call void @llvm.lifetime.start.p0(i64 8, ptr %9) #2
  %30 = load ptr, ptr %2, align 8
  %31 = getelementptr inbounds nuw %struct.SDL_BlitInfo, ptr %30, i32 0, i32 16
  %32 = load ptr, ptr %31, align 8
  store ptr %32, ptr %9, align 8
  call void @llvm.lifetime.start.p0(i64 4, ptr %10) #2
  %33 = load ptr, ptr %2, align 8
  %34 = getelementptr inbounds nuw %struct.SDL_BlitInfo, ptr %33, i32 0, i32 19
  %35 = load i32, ptr %34, align 4
  store i32 %35, ptr %10, align 4
  %36 = load i32, ptr %8, align 4
  %37 = sdiv i32 %36, 2
  store i32 %37, ptr %8, align 4
  br label %38

38:                                               ; preds = %206, %1
  %39 = load i32, ptr %4, align 4
  %40 = add nsw i32 %39, -1
  store i32 %40, ptr %4, align 4
  %41 = icmp ne i32 %39, 0
  br i1 %41, label %42, label %215

42:                                               ; preds = %38
  call void @llvm.lifetime.start.p0(i64 4, ptr %11) #2
  %43 = load i32, ptr %3, align 4
  %44 = add nsw i32 %43, 7
  %45 = sdiv i32 %44, 8
  store i32 %45, ptr %11, align 4
  %46 = load i32, ptr %3, align 4
  %47 = and i32 %46, 7
  switch i32 %47, label %206 [
    i32 0, label %48
    i32 7, label %68
    i32 6, label %87
    i32 5, label %106
    i32 4, label %125
    i32 3, label %144
    i32 2, label %163
    i32 1, label %182
  ]

48:                                               ; preds = %42
  br label %49

49:                                               ; preds = %201, %48
  %50 = load ptr, ptr %5, align 8
  %51 = load i8, ptr %50, align 1
  %52 = zext i8 %51 to i32
  %53 = load i32, ptr %10, align 4
  %54 = icmp ne i32 %52, %53
  br i1 %54, label %55, label %63

55:                                               ; preds = %49
  %56 = load ptr, ptr %9, align 8
  %57 = load ptr, ptr %5, align 8
  %58 = load i8, ptr %57, align 1
  %59 = zext i8 %58 to i64
  %60 = getelementptr inbounds nuw i16, ptr %56, i64 %59
  %61 = load i16, ptr %60, align 2
  %62 = load ptr, ptr %7, align 8
  store i16 %61, ptr %62, align 2
  br label %63

63:                                               ; preds = %55, %49
  %64 = load ptr, ptr %5, align 8
  %65 = getelementptr inbounds nuw i8, ptr %64, i32 1
  store ptr %65, ptr %5, align 8
  %66 = load ptr, ptr %7, align 8
  %67 = getelementptr inbounds nuw i16, ptr %66, i32 1
  store ptr %67, ptr %7, align 8
  br label %68

68:                                               ; preds = %42, %63
  %69 = load ptr, ptr %5, align 8
  %70 = load i8, ptr %69, align 1
  %71 = zext i8 %70 to i32
  %72 = load i32, ptr %10, align 4
  %73 = icmp ne i32 %71, %72
  br i1 %73, label %74, label %82

74:                                               ; preds = %68
  %75 = load ptr, ptr %9, align 8
  %76 = load ptr, ptr %5, align 8
  %77 = load i8, ptr %76, align 1
  %78 = zext i8 %77 to i64
  %79 = getelementptr inbounds nuw i16, ptr %75, i64 %78
  %80 = load i16, ptr %79, align 2
  %81 = load ptr, ptr %7, align 8
  store i16 %80, ptr %81, align 2
  br label %82

82:                                               ; preds = %74, %68
  %83 = load ptr, ptr %5, align 8
  %84 = getelementptr inbounds nuw i8, ptr %83, i32 1
  store ptr %84, ptr %5, align 8
  %85 = load ptr, ptr %7, align 8
  %86 = getelementptr inbounds nuw i16, ptr %85, i32 1
  store ptr %86, ptr %7, align 8
  br label %87

87:                                               ; preds = %42, %82
  %88 = load ptr, ptr %5, align 8
  %89 = load i8, ptr %88, align 1
  %90 = zext i8 %89 to i32
  %91 = load i32, ptr %10, align 4
  %92 = icmp ne i32 %90, %91
  br i1 %92, label %93, label %101

93:                                               ; preds = %87
  %94 = load ptr, ptr %9, align 8
  %95 = load ptr, ptr %5, align 8
  %96 = load i8, ptr %95, align 1
  %97 = zext i8 %96 to i64
  %98 = getelementptr inbounds nuw i16, ptr %94, i64 %97
  %99 = load i16, ptr %98, align 2
  %100 = load ptr, ptr %7, align 8
  store i16 %99, ptr %100, align 2
  br label %101

101:                                              ; preds = %93, %87
  %102 = load ptr, ptr %5, align 8
  %103 = getelementptr inbounds nuw i8, ptr %102, i32 1
  store ptr %103, ptr %5, align 8
  %104 = load ptr, ptr %7, align 8
  %105 = getelementptr inbounds nuw i16, ptr %104, i32 1
  store ptr %105, ptr %7, align 8
  br label %106

106:                                              ; preds = %42, %101
  %107 = load ptr, ptr %5, align 8
  %108 = load i8, ptr %107, align 1
  %109 = zext i8 %108 to i32
  %110 = load i32, ptr %10, align 4
  %111 = icmp ne i32 %109, %110
  br i1 %111, label %112, label %120

112:                                              ; preds = %106
  %113 = load ptr, ptr %9, align 8
  %114 = load ptr, ptr %5, align 8
  %115 = load i8, ptr %114, align 1
  %116 = zext i8 %115 to i64
  %117 = getelementptr inbounds nuw i16, ptr %113, i64 %116
  %118 = load i16, ptr %117, align 2
  %119 = load ptr, ptr %7, align 8
  store i16 %118, ptr %119, align 2
  br label %120

120:                                              ; preds = %112, %106
  %121 = load ptr, ptr %5, align 8
  %122 = getelementptr inbounds nuw i8, ptr %121, i32 1
  store ptr %122, ptr %5, align 8
  %123 = load ptr, ptr %7, align 8
  %124 = getelementptr inbounds nuw i16, ptr %123, i32 1
  store ptr %124, ptr %7, align 8
  br label %125

125:                                              ; preds = %42, %120
  %126 = load ptr, ptr %5, align 8
  %127 = load i8, ptr %126, align 1
  %128 = zext i8 %127 to i32
  %129 = load i32, ptr %10, align 4
  %130 = icmp ne i32 %128, %129
  br i1 %130, label %131, label %139

131:                                              ; preds = %125
  %132 = load ptr, ptr %9, align 8
  %133 = load ptr, ptr %5, align 8
  %134 = load i8, ptr %133, align 1
  %135 = zext i8 %134 to i64
  %136 = getelementptr inbounds nuw i16, ptr %132, i64 %135
  %137 = load i16, ptr %136, align 2
  %138 = load ptr, ptr %7, align 8
  store i16 %137, ptr %138, align 2
  br label %139

139:                                              ; preds = %131, %125
  %140 = load ptr, ptr %5, align 8
  %141 = getelementptr inbounds nuw i8, ptr %140, i32 1
  store ptr %141, ptr %5, align 8
  %142 = load ptr, ptr %7, align 8
  %143 = getelementptr inbounds nuw i16, ptr %142, i32 1
  store ptr %143, ptr %7, align 8
  br label %144

144:                                              ; preds = %42, %139
  %145 = load ptr, ptr %5, align 8
  %146 = load i8, ptr %145, align 1
  %147 = zext i8 %146 to i32
  %148 = load i32, ptr %10, align 4
  %149 = icmp ne i32 %147, %148
  br i1 %149, label %150, label %158

150:                                              ; preds = %144
  %151 = load ptr, ptr %9, align 8
  %152 = load ptr, ptr %5, align 8
  %153 = load i8, ptr %152, align 1
  %154 = zext i8 %153 to i64
  %155 = getelementptr inbounds nuw i16, ptr %151, i64 %154
  %156 = load i16, ptr %155, align 2
  %157 = load ptr, ptr %7, align 8
  store i16 %156, ptr %157, align 2
  br label %158

158:                                              ; preds = %150, %144
  %159 = load ptr, ptr %5, align 8
  %160 = getelementptr inbounds nuw i8, ptr %159, i32 1
  store ptr %160, ptr %5, align 8
  %161 = load ptr, ptr %7, align 8
  %162 = getelementptr inbounds nuw i16, ptr %161, i32 1
  store ptr %162, ptr %7, align 8
  br label %163

163:                                              ; preds = %42, %158
  %164 = load ptr, ptr %5, align 8
  %165 = load i8, ptr %164, align 1
  %166 = zext i8 %165 to i32
  %167 = load i32, ptr %10, align 4
  %168 = icmp ne i32 %166, %167
  br i1 %168, label %169, label %177

169:                                              ; preds = %163
  %170 = load ptr, ptr %9, align 8
  %171 = load ptr, ptr %5, align 8
  %172 = load i8, ptr %171, align 1
  %173 = zext i8 %172 to i64
  %174 = getelementptr inbounds nuw i16, ptr %170, i64 %173
  %175 = load i16, ptr %174, align 2
  %176 = load ptr, ptr %7, align 8
  store i16 %175, ptr %176, align 2
  br label %177

177:                                              ; preds = %169, %163
  %178 = load ptr, ptr %5, align 8
  %179 = getelementptr inbounds nuw i8, ptr %178, i32 1
  store ptr %179, ptr %5, align 8
  %180 = load ptr, ptr %7, align 8
  %181 = getelementptr inbounds nuw i16, ptr %180, i32 1
  store ptr %181, ptr %7, align 8
  br label %182

182:                                              ; preds = %42, %177
  %183 = load ptr, ptr %5, align 8
  %184 = load i8, ptr %183, align 1
  %185 = zext i8 %184 to i32
  %186 = load i32, ptr %10, align 4
  %187 = icmp ne i32 %185, %186
  br i1 %187, label %188, label %196

188:                                              ; preds = %182
  %189 = load ptr, ptr %9, align 8
  %190 = load ptr, ptr %5, align 8
  %191 = load i8, ptr %190, align 1
  %192 = zext i8 %191 to i64
  %193 = getelementptr inbounds nuw i16, ptr %189, i64 %192
  %194 = load i16, ptr %193, align 2
  %195 = load ptr, ptr %7, align 8
  store i16 %194, ptr %195, align 2
  br label %196

196:                                              ; preds = %188, %182
  %197 = load ptr, ptr %5, align 8
  %198 = getelementptr inbounds nuw i8, ptr %197, i32 1
  store ptr %198, ptr %5, align 8
  %199 = load ptr, ptr %7, align 8
  %200 = getelementptr inbounds nuw i16, ptr %199, i32 1
  store ptr %200, ptr %7, align 8
  br label %201

201:                                              ; preds = %196
  %202 = load i32, ptr %11, align 4
  %203 = add nsw i32 %202, -1
  store i32 %203, ptr %11, align 4
  %204 = icmp sgt i32 %203, 0
  br i1 %204, label %49, label %205, !llvm.loop !20

205:                                              ; preds = %201
  br label %206

206:                                              ; preds = %205, %42
  call void @llvm.lifetime.end.p0(i64 4, ptr %11) #2
  %207 = load i32, ptr %6, align 4
  %208 = load ptr, ptr %5, align 8
  %209 = sext i32 %207 to i64
  %210 = getelementptr inbounds i8, ptr %208, i64 %209
  store ptr %210, ptr %5, align 8
  %211 = load i32, ptr %8, align 4
  %212 = load ptr, ptr %7, align 8
  %213 = sext i32 %211 to i64
  %214 = getelementptr inbounds i16, ptr %212, i64 %213
  store ptr %214, ptr %7, align 8
  br label %38, !llvm.loop !21

215:                                              ; preds = %38
  call void @llvm.lifetime.end.p0(i64 4, ptr %10) #2
  call void @llvm.lifetime.end.p0(i64 8, ptr %9) #2
  call void @llvm.lifetime.end.p0(i64 4, ptr %8) #2
  call void @llvm.lifetime.end.p0(i64 8, ptr %7) #2
  call void @llvm.lifetime.end.p0(i64 4, ptr %6) #2
  call void @llvm.lifetime.end.p0(i64 8, ptr %5) #2
  call void @llvm.lifetime.end.p0(i64 4, ptr %4) #2
  call void @llvm.lifetime.end.p0(i64 4, ptr %3) #2
  ret void
}